target datalayout = "e-m:e-p270:32:32-p271:32:32-p272:64:64-i64:64-i128:128-f80:128-n8:16:32:64-S128"
target triple = "x86_64-pc-linux-gnu"

%struct.ProbRange = type { i8, i8 }
%struct.ProbRangesQueue = type { [4608 x %struct.ProbRange], i32 }

@ff_xface_probranges_per_level = external constant [4 x [3 x %struct.ProbRange]], align 16

; Function Attrs: nounwind uwtable
define internal i32 @all_same(ptr noundef %0, i32 noundef %1, i32 noundef %2) #0 {
  %4 = alloca i32, align 4
  %5 = alloca ptr, align 8
  %6 = alloca i32, align 4
  %7 = alloca i32, align 4
  %8 = alloca i8, align 1
  %9 = alloca ptr, align 8
  %10 = alloca i32, align 4
  %11 = alloca i32, align 4
  store ptr %0, ptr %5, align 8, !tbaa !39
  store i32 %1, ptr %6, align 4, !tbaa !36
  store i32 %2, ptr %7, align 4, !tbaa !36
  call void @llvm.lifetime.start.p0(i64 1, ptr %8) #7
  call void @llvm.lifetime.start.p0(i64 8, ptr %9) #7
  call void @llvm.lifetime.start.p0(i64 4, ptr %10) #7
  %12 = load ptr, ptr %5, align 8, !tbaa !39
  %13 = load i8, ptr %12, align 1, !tbaa !40
  store i8 %13, ptr %8, align 1, !tbaa !40
  br label %14

14:                                               ; preds = %35, %3
  %15 = load i32, ptr %7, align 4, !tbaa !36
  %16 = add nsw i32 %15, -1
  store i32 %16, ptr %7, align 4, !tbaa !36
  %17 = icmp ne i32 %15, 0
  br i1 %17, label %18, label %38

18:                                               ; preds = %14
  %19 = load ptr, ptr %5, align 8, !tbaa !39
  store ptr %19, ptr %9, align 8, !tbaa !39
  %20 = load i32, ptr %6, align 4, !tbaa !36
  store i32 %20, ptr %10, align 4, !tbaa !36
  br label %21

21:                                               ; preds = %34, %18
  %22 = load i32, ptr %10, align 4, !tbaa !36
  %23 = add nsw i32 %22, -1
  store i32 %23, ptr %10, align 4, !tbaa !36
  %24 = icmp ne i32 %22, 0
  br i1 %24, label %25, label %35

25:                                               ; preds = %21
  %26 = load ptr, ptr %9, align 8, !tbaa !39
  %27 = getelementptr inbounds nuw i8, ptr %26, i32 1
  store ptr %27, ptr %9, align 8, !tbaa !39
  %28 = load i8, ptr %26, align 1, !tbaa !40
  %29 = sext i8 %28 to i32
  %30 = load i8, ptr %8, align 1, !tbaa !40
  %31 = sext i8 %30 to i32
  %32 = icmp ne i32 %29, %31
  br i1 %32, label %33, label %34

33:                                               ; preds = %25
  store i32 0, ptr %4, align 4
  store i32 1, ptr %11, align 4
  br label %39

34:                                               ; preds = %25
  br label %21, !llvm.loop !58

35:                                               ; preds = %21
  %36 = load ptr, ptr %5, align 8, !tbaa !39
  %37 = getelementptr inbounds i8, ptr %36, i64 48
  store ptr %37, ptr %5, align 8, !tbaa !39
  br label %14, !llvm.loop !59

38:                                               ; preds = %14
  store i32 1, ptr %4, align 4
  store i32 1, ptr %11, align 4
  br label %39

39:                                               ; preds = %38, %33
  call void @llvm.lifetime.end.p0(i64 4, ptr %10) #7
  call void @llvm.lifetime.end.p0(i64 8, ptr %9) #7
  call void @llvm.lifetime.end.p0(i64 1, ptr %8) #7
  %40 = load i32, ptr %4, align 4
  ret i32 %40
}

; Function Attrs: inlinehint nounwind uwtable
define internal i32 @pq_push(ptr noundef %0, ptr noundef %1) #6 {
  %3 = alloca i32, align 4
  %4 = alloca ptr, align 8
  %5 = alloca ptr, align 8
  store ptr %0, ptr %4, align 8, !tbaa !53
  store ptr %1, ptr %5, align 8, !tbaa !53
  %6 = load ptr, ptr %4, align 8, !tbaa !53
  %7 = getelementptr inbounds nuw %struct.ProbRangesQueue, ptr %6, i32 0, i32 1
  %8 = load i32, ptr %7, align 4, !tbaa !44
  %9 = icmp sge i32 %8, 4607
  br i1 %9, label %10, label %11

10:                                               ; preds = %2
  store i32 -1, ptr %3, align 4
  br label %21

11:                                               ; preds = %2
  %12 = load ptr, ptr %4, align 8, !tbaa !53
  %13 = getelementptr inbounds nuw %struct.ProbRangesQueue, ptr %12, i32 0, i32 0
  %14 = load ptr, ptr %4, align 8, !tbaa !53
  %15 = getelementptr inbounds nuw %struct.ProbRangesQueue, ptr %14, i32 0, i32 1
  %16 = load i32, ptr %15, align 4, !tbaa !44
  %17 = add nsw i32 %16, 1
  store i32 %17, ptr %15, align 4, !tbaa !44
  %18 = sext i32 %16 to i64
  %19 = getelementptr inbounds [4608 x %struct.ProbRange], ptr %13, i64 0, i64 %18
  %20 = load ptr, ptr %5, align 8, !tbaa !53
  call void @llvm.memcpy.p0.p0.i64(ptr align 2 %19, ptr align 1 %20, i64 2, i1 false), !tbaa.struct !57
  store i32 0, ptr %3, align 4
  br label %21

21:                                               ; preds = %11, %10
  %22 = load i32, ptr %3, align 4
  ret i32 %22
}

; Function Attrs: nounwind uwtable
define internal i32 @all_white(ptr noundef %0, i32 noundef %1, i32 noundef %2) #0 {
  %4 = alloca ptr, align 8
  %5 = alloca i32, align 4
  %6 = alloca i32, align 4
  store ptr %0, ptr %4, align 8, !tbaa !39
  store i32 %1, ptr %5, align 4, !tbaa !36
  store i32 %2, ptr %6, align 4, !tbaa !36
  %7 = load ptr, ptr %4, align 8, !tbaa !39
  %8 = load i8, ptr %7, align 1, !tbaa !40
  %9 = sext i8 %8 to i32
  %10 = icmp eq i32 %9, 0
  br i1 %10, label %11, label %17

11:                                               ; preds = %3
  %12 = load ptr, ptr %4, align 8, !tbaa !39
  %13 = load i32, ptr %5, align 4, !tbaa !36
  %14 = load i32, ptr %6, align 4, !tbaa !36
  %15 = call i32 @all_same(ptr noundef %12, i32 noundef %13, i32 noundef %14)
  %16 = icmp ne i32 %15, 0
  br label %17

17:                                               ; preds = %11, %3
  %18 = phi i1 [ false, %3 ], [ %16, %11 ]
  %19 = zext i1 %18 to i32
  ret i32 %19
}

; Function Attrs: nounwind uwtable
define internal void @encode_block(ptr noundef %0, i32 noundef %1, i32 noundef %2, i32 noundef %3, ptr noundef %4) #0 {
  %6 = alloca ptr, align 8
  %7 = alloca i32, align 4
  %8 = alloca i32, align 4
  %9 = alloca i32, align 4
  %10 = alloca ptr, align 8
  store ptr %0, ptr %6, align 8, !tbaa !39
  store i32 %1, ptr %7, align 4, !tbaa !36
  store i32 %2, ptr %8, align 4, !tbaa !36
  store i32 %3, ptr %9, align 4, !tbaa !36
  store ptr %4, ptr %10, align 8, !tbaa !53
  %11 = load ptr, ptr %6, align 8, !tbaa !39
  %12 = load i32, ptr %7, align 4, !tbaa !36
  %13 = load i32, ptr %8, align 4, !tbaa !36
  %14 = call i32 @all_white(ptr noundef %11, i32 noundef %12, i32 noundef %13)
  %15 = icmp ne i32 %14, 0
  br i1 %15, label %16, label %23

16:                                               ; preds = %5
  %17 = load ptr, ptr %10, align 8, !tbaa !53
  %18 = load i32, ptr %9, align 4, !tbaa !36
  %19 = sext i32 %18 to i64
  %20 = getelementptr inbounds [4 x [3 x %struct.ProbRange]], ptr @ff_xface_probranges_per_level, i64 0, i64 %19
  %21 = getelementptr inbounds [3 x %struct.ProbRange], ptr %20, i64 0, i64 2
  %22 = call i32 @pq_push(ptr noundef %17, ptr noundef %21)
  br label %88

23:                                               ; preds = %5
  %24 = load ptr, ptr %6, align 8, !tbaa !39
  %25 = load i32, ptr %7, align 4, !tbaa !36
  %26 = load i32, ptr %8, align 4, !tbaa !36
  %27 = call i32 @all_black(ptr noundef %24, i32 noundef %25, i32 noundef %26)
  %28 = icmp ne i32 %27, 0
  br i1 %28, label %29, label %40

29:                                               ; preds = %23
  %30 = load ptr, ptr %10, align 8, !tbaa !53
  %31 = load i32, ptr %9, align 4, !tbaa !36
  %32 = sext i32 %31 to i64
  %33 = getelementptr inbounds [4 x [3 x %struct.ProbRange]], ptr @ff_xface_probranges_per_level, i64 0, i64 %32
  %34 = getelementptr inbounds [3 x %struct.ProbRange], ptr %33, i64 0, i64 0
  %35 = call i32 @pq_push(ptr noundef %30, ptr noundef %34)
  %36 = load ptr, ptr %10, align 8, !tbaa !53
  %37 = load ptr, ptr %6, align 8, !tbaa !39
  %38 = load i32, ptr %7, align 4, !tbaa !36
  %39 = load i32, ptr %8, align 4, !tbaa !36
  call void @push_greys(ptr noundef %36, ptr noundef %37, i32 noundef %38, i32 noundef %39)
  br label %87

40:                                               ; preds = %23
  %41 = load ptr, ptr %10, align 8, !tbaa !53
  %42 = load i32, ptr %9, align 4, !tbaa !36
  %43 = sext i32 %42 to i64
  %44 = getelementptr inbounds [4 x [3 x %struct.ProbRange]], ptr @ff_xface_probranges_per_level, i64 0, i64 %43
  %45 = getelementptr inbounds [3 x %struct.ProbRange], ptr %44, i64 0, i64 1
  %46 = call i32 @pq_push(ptr noundef %41, ptr noundef %45)
  %47 = load i32, ptr %7, align 4, !tbaa !36
  %48 = sdiv i32 %47, 2
  store i32 %48, ptr %7, align 4, !tbaa !36
  %49 = load i32, ptr %8, align 4, !tbaa !36
  %50 = sdiv i32 %49, 2
  store i32 %50, ptr %8, align 4, !tbaa !36
  %51 = load i32, ptr %9, align 4, !tbaa !36
  %52 = add nsw i32 %51, 1
  store i32 %52, ptr %9, align 4, !tbaa !36
  %53 = load ptr, ptr %6, align 8, !tbaa !39
  %54 = load i32, ptr %7, align 4, !tbaa !36
  %55 = load i32, ptr %8, align 4, !tbaa !36
  %56 = load i32, ptr %9, align 4, !tbaa !36
  %57 = load ptr, ptr %10, align 8, !tbaa !53
  call void @encode_block(ptr noundef %53, i32 noundef %54, i32 noundef %55, i32 noundef %56, ptr noundef %57)
  %58 = load ptr, ptr %6, align 8, !tbaa !39
  %59 = load i32, ptr %7, align 4, !tbaa !36
  %60 = sext i32 %59 to i64
  %61 = getelementptr inbounds i8, ptr %58, i64 %60
  %62 = load i32, ptr %7, align 4, !tbaa !36
  %63 = load i32, ptr %8, align 4, !tbaa !36
  %64 = load i32, ptr %9, align 4, !tbaa !36
  %65 = load ptr, ptr %10, align 8, !tbaa !53
  call void @encode_block(ptr noundef %61, i32 noundef %62, i32 noundef %63, i32 noundef %64, ptr noundef %65)
  %66 = load ptr, ptr %6, align 8, !tbaa !39
  %67 = load i32, ptr %8, align 4, !tbaa !36
  %68 = mul nsw i32 %67, 48
  %69 = sext i32 %68 to i64
  %70 = getelementptr inbounds i8, ptr %66, i64 %69
  %71 = load i32, ptr %7, align 4, !tbaa !36
  %72 = load i32, ptr %8, align 4, !tbaa !36
  %73 = load i32, ptr %9, align 4, !tbaa !36
  %74 = load ptr, ptr %10, align 8, !tbaa !53
  call void @encode_block(ptr noundef %70, i32 noundef %71, i32 noundef %72, i32 noundef %73, ptr noundef %74)
  %75 = load ptr, ptr %6, align 8, !tbaa !39
  %76 = load i32, ptr %7, align 4, !tbaa !36
  %77 = sext i32 %76 to i64
  %78 = getelementptr inbounds i8, ptr %75, i64 %77
  %79 = load i32, ptr %8, align 4, !tbaa !36
  %80 = mul nsw i32 %79, 48
  %81 = sext i32 %80 to i64
  %82 = getelementptr inbounds i8, ptr %78, i64 %81
  %83 = load i32, ptr %7, align 4, !tbaa !36
  %84 = load i32, ptr %8, align 4, !tbaa !36
  %85 = load i32, ptr %9, align 4, !tbaa !36
  %86 = load ptr, ptr %10, align 8, !tbaa !53
  call void @encode_block(ptr noundef %82, i32 noundef %83, i32 noundef %84, i32 noundef %85, ptr noundef %86)
  br label %87

87:                                               ; preds = %40, %29
  br label %88

88:                                               ; preds = %87, %16
  ret void
}