; Function Attrs: nofree nosync nounwind memory(argmem: readwrite) uwtable
define internal fastcc void @encode_block(ptr noundef %0, i32 noundef range(i32 0, 17) %1, i32 noundef range(i32 0, 17) %2, i32 noundef %3, ptr noundef nonnull %4) unnamed_addr #5 {
  %6 = getelementptr inbounds nuw i8, ptr %4, i64 9216
  %7 = sext i32 %3 to i64
  br label %tailrecurse

tailrecurse:                                      ; preds = %pq_push.exit46, %5
  %indvars.iv = phi i64 [ %indvars.iv.next, %pq_push.exit46 ], [ %7, %5 ]
  %.tr = phi ptr [ %54, %pq_push.exit46 ], [ %0, %5 ]
  %.tr48 = phi i32 [ %46, %pq_push.exit46 ], [ %1, %5 ]
  %.tr49 = phi i32 [ %47, %pq_push.exit46 ], [ %2, %5 ]
  %8 = load i8, ptr %.tr, align 1, !tbaa !30
  %9 = icmp eq i8 %8, 0
  br i1 %9, label %10, label %.loopexit

10:                                               ; preds = %tailrecurse
  %.not15.i.i = icmp eq i32 %.tr49, 0
  br i1 %.not15.i.i, label %all_white.exit, label %.preheader.i.i

.preheader.i.i:                                   ; preds = %10, %17
  %.in.i.i = phi i32 [ %11, %17 ], [ %.tr49, %10 ]
  %.01116.i.i = phi ptr [ %18, %17 ], [ %.tr, %10 ]
  %11 = add nsw i32 %.in.i.i, -1
  br label %12

12:                                               ; preds = %13, %.preheader.i.i
  %.08.i.i = phi ptr [ %15, %13 ], [ %.01116.i.i, %.preheader.i.i ]
  %.0.i.i = phi i32 [ %14, %13 ], [ %.tr48, %.preheader.i.i ]
  %.not12.i.i = icmp eq i32 %.0.i.i, 0
  br i1 %.not12.i.i, label %17, label %13

13:                                               ; preds = %12
  %14 = add nsw i32 %.0.i.i, -1
  %15 = getelementptr inbounds nuw i8, ptr %.08.i.i, i64 1
  %16 = load i8, ptr %.08.i.i, align 1, !tbaa !30
  %.not13.i.i = icmp eq i8 %16, 0
  br i1 %.not13.i.i, label %12, label %.loopexit, !llvm.loop !47

17:                                               ; preds = %12
  %18 = getelementptr inbounds nuw i8, ptr %.01116.i.i, i64 48
  %.not.i.i = icmp eq i32 %11, 0
  br i1 %.not.i.i, label %all_white.exit, label %.preheader.i.i, !llvm.loop !48

all_white.exit:                                   ; preds = %10, %17
  %19 = load i32, ptr %6, align 4, !tbaa !35
  %20 = icmp sgt i32 %19, 4606
  br i1 %20, label %pq_push.exit, label %21

21:                                               ; preds = %all_white.exit
  %sext73 = shl i64 %indvars.iv, 32
  %22 = ashr exact i64 %sext73, 32
  %23 = getelementptr inbounds [4 x [3 x %struct.ProbRange]], ptr @ff_xface_probranges_per_level, i64 0, i64 %22, i64 2
  %24 = add nsw i32 %19, 1
  store i32 %24, ptr %6, align 4, !tbaa !35
  %25 = sext i32 %19 to i64
  %26 = getelementptr inbounds [4608 x %struct.ProbRange], ptr %4, i64 0, i64 %25
  %27 = load i16, ptr %23, align 2
  store i16 %27, ptr %26, align 2
  br label %pq_push.exit

.loopexit:                                        ; preds = %13, %tailrecurse
  %28 = tail call fastcc i32 @all_black(ptr noundef nonnull %.tr, i32 noundef %.tr48, i32 noundef %.tr49)
  %.not42 = icmp eq i32 %28, 0
  %29 = load i32, ptr %6, align 4, !tbaa !35
  %30 = icmp sgt i32 %29, 4606
  br i1 %.not42, label %39, label %31

31:                                               ; preds = %.loopexit
  br i1 %30, label %pq_push.exit44, label %32

32:                                               ; preds = %31
  %sext = shl i64 %indvars.iv, 32
  %33 = ashr exact i64 %sext, 32
  %34 = getelementptr inbounds [4 x [3 x %struct.ProbRange]], ptr @ff_xface_probranges_per_level, i64 0, i64 %33
  %35 = add nsw i32 %29, 1
  store i32 %35, ptr %6, align 4, !tbaa !35
  %36 = sext i32 %29 to i64
  %37 = getelementptr inbounds [4608 x %struct.ProbRange], ptr %4, i64 0, i64 %36
  %38 = load i16, ptr %34, align 2
  store i16 %38, ptr %37, align 2
  br label %pq_push.exit44

pq_push.exit44:                                   ; preds = %31, %32
  tail call fastcc void @push_greys(ptr noundef %4, ptr noundef nonnull %.tr, i32 noundef %.tr48, i32 noundef %.tr49)
  br label %pq_push.exit

39:                                               ; preds = %.loopexit
  br i1 %30, label %pq_push.exit46, label %40

40:                                               ; preds = %39
  %41 = getelementptr inbounds [4 x [3 x %struct.ProbRange]], ptr @ff_xface_probranges_per_level, i64 0, i64 %indvars.iv, i64 1
  %42 = add nsw i32 %29, 1
  store i32 %42, ptr %6, align 4, !tbaa !35
  %43 = sext i32 %29 to i64
  %44 = getelementptr inbounds [4608 x %struct.ProbRange], ptr %4, i64 0, i64 %43
  %45 = load i16, ptr %41, align 2
  store i16 %45, ptr %44, align 2
  br label %pq_push.exit46

pq_push.exit46:                                   ; preds = %39, %40
  %46 = lshr i32 %.tr48, 1
  %47 = lshr i32 %.tr49, 1
  %indvars.iv.next = add nsw i64 %indvars.iv, 1
  %48 = trunc nsw i64 %indvars.iv.next to i32
  tail call fastcc void @encode_block(ptr noundef nonnull %.tr, i32 noundef %46, i32 noundef %47, i32 noundef %48, ptr noundef %4)
  %49 = zext nneg i32 %46 to i64
  %50 = getelementptr inbounds nuw i8, ptr %.tr, i64 %49
  tail call fastcc void @encode_block(ptr noundef nonnull %50, i32 noundef %46, i32 noundef %47, i32 noundef %48, ptr noundef %4)
  %51 = mul nuw nsw i32 %47, 48
  %52 = zext nneg i32 %51 to i64
  %53 = getelementptr inbounds nuw i8, ptr %.tr, i64 %52
  tail call fastcc void @encode_block(ptr noundef nonnull %53, i32 noundef %46, i32 noundef %47, i32 noundef %48, ptr noundef %4)
  %54 = getelementptr inbounds nuw i8, ptr %50, i64 %52
  br label %tailrecurse

pq_push.exit:                                     ; preds = %21, %all_white.exit, %pq_push.exit44
  ret void
}